; Function Attrs: mustprogress uwtable
define void @_ZN5folly21PriorityThreadFactoryC2ESt10shared_ptrINS_13ThreadFactoryEEi(ptr noundef nonnull align 8 dereferenceable(40) %this, ptr nocapture noundef %factory, i32 noundef %priority) unnamed_addr #0 align 2 personality ptr @__gxx_personality_v0 {
entry:
  %agg.tmp = alloca %"class.std::shared_ptr", align 8
  %_M_refcount.i.i = getelementptr inbounds i8, ptr %agg.tmp, i64 8
  %threadFactory_.i = getelementptr inbounds i8, ptr %this, i64 8
  %0 = load <2 x ptr>, ptr %factory, align 8, !tbaa !7
  tail call void @llvm.memset.p0.i64(ptr noundef nonnull align 8 dereferenceable(16) %factory, i8 0, i64 16, i1 false)
  store ptr getelementptr inbounds inrange(-16, 32) ({ [6 x ptr] }, ptr @_ZTVN5folly17InitThreadFactoryE, i64 0, i32 0, i64 2), ptr %this, align 8, !tbaa !11
  store ptr null, ptr %_M_refcount.i.i, align 8, !tbaa !13
  store <2 x ptr> %0, ptr %threadFactory_.i, align 8, !tbaa !7
  store ptr null, ptr %agg.tmp, align 8, !tbaa !15
  %threadInitFini_.i = getelementptr inbounds i8, ptr %this, i64 24
  tail call void @llvm.experimental.noalias.scope.decl(metadata !17)
  store ptr null, ptr %threadInitFini_.i, align 8, !tbaa !20, !alias.scope !17
  %call5.i.i.i19.i.i.i.i3.i = invoke noalias noundef nonnull dereferenceable(144) ptr @_Znwm(i64 noundef 144) #16
          to label %_ZNSt12__shared_ptrIN5folly13ThreadFactoryELN9__gnu_cxx12_Lock_policyE2EED2Ev.exit unwind label %_ZN5folly8FunctionIFvvEED2Ev.exit22

_ZNSt12__shared_ptrIN5folly13ThreadFactoryELN9__gnu_cxx12_Lock_policyE2EED2Ev.exit: ; preds = %entry
  %ref.tmp.sroa.0.0.insert.ext = zext i32 %priority to i64
  %1 = inttoptr i64 %ref.tmp.sroa.0.0.insert.ext to ptr
  %_M_use_count.i.i.i.i.i.i.i = getelementptr inbounds i8, ptr %call5.i.i.i19.i.i.i.i3.i, i64 8
  store i32 1, ptr %_M_use_count.i.i.i.i.i.i.i, align 8, !tbaa !22, !noalias !17
  %_M_weak_count.i.i.i.i.i.i.i = getelementptr inbounds i8, ptr %call5.i.i.i19.i.i.i.i3.i, i64 12
  store i32 1, ptr %_M_weak_count.i.i.i.i.i.i.i, align 4, !tbaa !25, !noalias !17
  store ptr getelementptr inbounds inrange(-16, 40) ({ [7 x ptr] }, ptr @_ZTVSt23_Sp_counted_ptr_inplaceIN5folly17InitThreadFactory14ThreadInitFiniESaIvELN9__gnu_cxx12_Lock_policyE2EE, i64 0, i32 0, i64 2), ptr %call5.i.i.i19.i.i.i.i3.i, align 16, !tbaa !11, !noalias !17
  %_M_impl.i.i.i.i.i.i.i = getelementptr inbounds i8, ptr %call5.i.i.i19.i.i.i.i3.i, i64 16
  %call_.i.i.i.i.i.i.i.i.i.i = getelementptr inbounds i8, ptr %call5.i.i.i19.i.i.i.i3.i, i64 64
  store ptr @"_ZN5folly6detail8function14FunctionTraitsIFvvEE9callSmallIZNS_21PriorityThreadFactoryC1ESt10shared_ptrINS_13ThreadFactoryEEiE3$_0EEvRNS1_4DataE", ptr %call_.i.i.i.i.i.i.i.i.i.i, align 16, !tbaa !26, !noalias !17
  %exec_.i.i.i.i.i.i.i.i.i.i = getelementptr inbounds i8, ptr %call5.i.i.i19.i.i.i.i3.i, i64 72
  store ptr @_ZN5folly6detail8function20DispatchSmallTrivial5exec_ILm16EEEmNS1_2OpEPNS1_4DataES6_, ptr %exec_.i.i.i.i.i.i.i.i.i.i, align 8, !tbaa !28, !noalias !17
  store ptr %1, ptr %_M_impl.i.i.i.i.i.i.i, align 1, !noalias !17
  %finalizer.i.i.i.i.i.i.i.i.i = getelementptr inbounds i8, ptr %call5.i.i.i19.i.i.i.i3.i, i64 80
  %call_.i2.i.i.i.i.i.i.i.i.i = getelementptr inbounds i8, ptr %call5.i.i.i19.i.i.i.i3.i, i64 128
  store ptr @_ZN5folly6detail8function14FunctionTraitsIFvvEE9callSmallIZNS_17InitThreadFactoryC1ESt10shared_ptrINS_13ThreadFactoryEEONS_8FunctionIS3_EESC_Ed_UlvE_EEvRNS1_4DataE, ptr %call_.i2.i.i.i.i.i.i.i.i.i, align 16, !tbaa !26, !noalias !17
  %exec_.i4.i.i.i.i.i.i.i.i.i = getelementptr inbounds i8, ptr %call5.i.i.i19.i.i.i.i3.i, i64 136
  store ptr @_ZN5folly6detail8function20DispatchSmallTrivial5exec_ILm16EEEmNS1_2OpEPNS1_4DataES6_, ptr %exec_.i4.i.i.i.i.i.i.i.i.i, align 8, !tbaa !28, !noalias !17
  store ptr null, ptr %finalizer.i.i.i.i.i.i.i.i.i, align 1, !noalias !17
  %_M_refcount.i.i.i.i = getelementptr inbounds i8, ptr %this, i64 32
  store ptr %call5.i.i.i19.i.i.i.i3.i, ptr %_M_refcount.i.i.i.i, align 8, !tbaa !13, !alias.scope !17
  store ptr %_M_impl.i.i.i.i.i.i.i, ptr %threadInitFini_.i, align 8, !tbaa !7, !alias.scope !17
  store ptr getelementptr inbounds inrange(-16, 32) ({ [6 x ptr] }, ptr @_ZTVN5folly21PriorityThreadFactoryE, i64 0, i32 0, i64 2), ptr %this, align 8, !tbaa !11
  ret void

_ZN5folly8FunctionIFvvEED2Ev.exit22:              ; preds = %entry
  %2 = landingpad { ptr, i32 }
          cleanup
  tail call void @_ZNSt12__shared_ptrIN5folly13ThreadFactoryELN9__gnu_cxx12_Lock_policyE2EED2Ev(ptr noundef nonnull align 8 dereferenceable(16) %threadFactory_.i) #17
  call void @_ZNSt12__shared_ptrIN5folly13ThreadFactoryELN9__gnu_cxx12_Lock_policyE2EED2Ev(ptr noundef nonnull align 8 dereferenceable(16) %agg.tmp) #17
  resume { ptr, i32 } %2
}